; Function Attrs: mustprogress uwtable
define internal noundef zeroext i1 @_ZNSt17_Function_handlerIFbPN3dap10SerializerEEZZN12_GLOBAL__N_14Impl4sendEPKNS0_8TypeInfoEPKvENKUlPNS0_15FieldSerializerEE_clESC_EUlS2_E_E9_M_invokeERKSt9_Any_dataOS2_(ptr nocapture noundef nonnull readonly align 8 dereferenceable(16) %0, ptr nocapture noundef nonnull readonly align 8 dereferenceable(8) %1) #0 align 2 {
  %.val = load ptr, ptr %0, align 8
  %3 = getelementptr inbounds i8, ptr %0, i64 8
  %.val2 = load ptr, ptr %3, align 8
  %.val3 = load ptr, ptr %1, align 8
  %.val.val = load ptr, ptr %.val, align 8
  %.val2.val = load ptr, ptr %.val2, align 8
  %4 = load ptr, ptr %.val.val, align 8
  %5 = getelementptr inbounds i8, ptr %4, i64 72
  %6 = load ptr, ptr %5, align 8
  %7 = tail call noundef zeroext i1 %6(ptr noundef nonnull align 8 dereferenceable(8) %.val.val, ptr noundef %.val3, ptr noundef %.val2.val)
  ret i1 %7
}